target datalayout = "e-m:e-p270:32:32-p271:32:32-p272:64:64-i64:64-i128:128-f80:128-n8:16:32:64-S128"
target triple = "x86_64-pc-linux-gnu"

%class.anon.69 = type { i8 }

@.str.115 = private unnamed_addr constant [37 x i8] c"Camera/Rays vignetted by lens system\00", align 1
@_ZN4pbrtL13vignettedRaysE = internal thread_local global i64 0, align 8
@_ZN4pbrtL9totalRaysE = internal thread_local global i64 0, align 8

; Function Attrs: inlinehint mustprogress uwtable
define internal void @"_ZNK4pbrt3$_7clERNS_16StatsAccumulatorE"(ptr noundef nonnull align 1 dereferenceable(1) %0, ptr noundef nonnull align 8 dereferenceable(8) %1) #10 align 2 {
  %3 = alloca ptr, align 8
  %4 = alloca ptr, align 8
  store ptr %0, ptr %3, align 8, !tbaa !57
  store ptr %1, ptr %4, align 8, !tbaa !613
  %5 = load ptr, ptr %4, align 8, !tbaa !613
  %6 = call align 8 ptr @llvm.threadlocal.address.p0(ptr align 8 @_ZN4pbrtL13vignettedRaysE)
  %7 = load i64, ptr %6, align 8, !tbaa !165
  %8 = call align 8 ptr @llvm.threadlocal.address.p0(ptr align 8 @_ZN4pbrtL9totalRaysE)
  %9 = load i64, ptr %8, align 8, !tbaa !165
  call void @_ZN4pbrt16StatsAccumulator16ReportPercentageEPKcll(ptr noundef nonnull align 8 dereferenceable(8) %5, ptr noundef @.str.115, i64 noundef %7, i64 noundef %9)
  %10 = call align 8 ptr @llvm.threadlocal.address.p0(ptr align 8 @_ZN4pbrtL13vignettedRaysE)
  store i64 0, ptr %10, align 8, !tbaa !165
  %11 = call align 8 ptr @llvm.threadlocal.address.p0(ptr align 8 @_ZN4pbrtL9totalRaysE)
  store i64 0, ptr %11, align 8, !tbaa !165
  ret void
}

; Function Attrs: inlinehint mustprogress uwtable
define internal void @"_ZN4pbrt3$_78__invokeERNS_16StatsAccumulatorE"(ptr noundef nonnull align 8 dereferenceable(8) %0) #10 align 2 {
  %2 = alloca ptr, align 8
  %3 = alloca %class.anon.69, align 1
  store ptr %0, ptr %2, align 8, !tbaa !613
  %4 = load ptr, ptr %2, align 8
  call void @"_ZNK4pbrt3$_7clERNS_16StatsAccumulatorE"(ptr noundef nonnull align 1 dereferenceable(1) %3, ptr noundef nonnull align 8 dereferenceable(8) %4)
  ret void
}