; Function Attrs: inlinehint mustprogress uwtable
define internal void @"_ZN4pbrt3$_78__invokeERNS_16StatsAccumulatorE"(ptr noundef nonnull align 8 dereferenceable(8) %0) #7 align 2 {
  %2 = tail call align 8 ptr @llvm.threadlocal.address.p0(ptr align 8 @_ZN4pbrtL13vignettedRaysE)
  %3 = load i64, ptr %2, align 8, !tbaa !90
  %4 = tail call align 8 ptr @llvm.threadlocal.address.p0(ptr align 8 @_ZN4pbrtL9totalRaysE)
  %5 = load i64, ptr %4, align 8, !tbaa !90
  tail call void @_ZN4pbrt16StatsAccumulator16ReportPercentageEPKcll(ptr noundef nonnull align 8 dereferenceable(8) %0, ptr noundef nonnull @.str.115, i64 noundef %3, i64 noundef %5)
  store i64 0, ptr %2, align 8, !tbaa !90
  store i64 0, ptr %4, align 8, !tbaa !90
  ret void
}